; Function Attrs: mustprogress uwtable
define dso_local void @_ZN3net14QuicConnection16MaybeSetMtuAlarmEv(ptr noundef nonnull align 8 dereferenceable(3372) %this) local_unnamed_addr #0 align 2 {
entry:
  %mtu_discovery_target_ = getelementptr inbounds i8, ptr %this, i64 3312
  %0 = load i64, ptr %mtu_discovery_target_, align 8
  %packet_generator_.i = getelementptr inbounds i8, ptr %this, i64 2408
  %call.i = tail call noundef i64 @_ZNK3net19QuicPacketGenerator25GetCurrentMaxPacketLengthEv(ptr noundef nonnull align 8 dereferenceable(472) %packet_generator_.i)
  %cmp.not = icmp ule i64 %0, %call.i
  %mtu_probe_count_ = getelementptr inbounds i8, ptr %this, i64 3320
  %1 = load i64, ptr %mtu_probe_count_, align 8
  %cmp2 = icmp ugt i64 %1, 2
  %or.cond = select i1 %cmp.not, i1 true, i1 %cmp2
  br i1 %or.cond, label %if.end15, label %if.end4

if.end4:                                          ; preds = %entry
  %mtu_discovery_alarm_ = getelementptr inbounds i8, ptr %this, i64 2384
  %2 = load ptr, ptr %mtu_discovery_alarm_, align 8
  %3 = ptrtoint ptr %2 to i64
  %and.i.i = and i64 %3, -2
  %4 = inttoptr i64 %and.i.i to ptr
  %call6 = tail call noundef zeroext i1 @_ZNK3net9QuicAlarm5IsSetEv(ptr noundef nonnull align 8 dereferenceable(24) %4)
  br i1 %call6, label %if.end15, label %if.end8

if.end8:                                          ; preds = %if.end4
  %packet_number_of_last_sent_packet_ = getelementptr inbounds i8, ptr %this, i64 3184
  %5 = load i64, ptr %packet_number_of_last_sent_packet_, align 8
  %next_mtu_probe_at_ = getelementptr inbounds i8, ptr %this, i64 3336
  %6 = load i64, ptr %next_mtu_probe_at_, align 8
  %cmp9.not = icmp ult i64 %5, %6
  br i1 %cmp9.not, label %if.end15, label %if.then10

if.then10:                                        ; preds = %if.end8
  %7 = load ptr, ptr %mtu_discovery_alarm_, align 8
  %8 = ptrtoint ptr %7 to i64
  %and.i.i1 = and i64 %8, -2
  %9 = inttoptr i64 %and.i.i1 to ptr
  %clock_ = getelementptr inbounds i8, ptr %this, i64 480
  %10 = load ptr, ptr %clock_, align 8
  %vtable = load ptr, ptr %10, align 8
  %vfn = getelementptr inbounds i8, ptr %vtable, i64 16
  %11 = load ptr, ptr %vfn, align 8
  %call13 = tail call i64 %11(ptr noundef nonnull align 8 dereferenceable(8) %10)
  tail call void @_ZN3net9QuicAlarm3SetENS_8QuicTimeE(ptr noundef nonnull align 8 dereferenceable(24) %9, i64 %call13)
  br label %if.end15

if.end15:                                         ; preds = %if.end4, %entry, %if.then10, %if.end8
  ret void
}